target datalayout = "e-m:e-p270:32:32-p271:32:32-p272:64:64-i64:64-i128:128-f80:128-n8:16:32:64-S128"
target triple = "x86_64-pc-linux-gnu"

%struct.nghttp2_hd_deflater = type { %struct.nghttp2_hd_context, %struct.nghttp2_hd_map, i64, i64, i8 }
%struct.nghttp2_hd_context = type { %struct.nghttp2_hd_ringbuf, ptr, i64, i64, i32, i8 }
%struct.nghttp2_hd_ringbuf = type { ptr, i64, i64, i64 }
%struct.nghttp2_hd_map = type { [128 x ptr] }
%struct.nghttp2_bufs = type { ptr, ptr, ptr, i64, i64, i64, i64, i64 }

; Function Attrs: nounwind uwtable
define i64 @nghttp2_hd_deflate_hd2(ptr noundef %0, ptr noundef %1, i64 noundef %2, ptr noundef %3, i64 noundef %4) #0 {
  %6 = alloca i64, align 8
  %7 = alloca ptr, align 8
  %8 = alloca ptr, align 8
  %9 = alloca i64, align 8
  %10 = alloca ptr, align 8
  %11 = alloca i64, align 8
  %12 = alloca %struct.nghttp2_bufs, align 8
  %13 = alloca i32, align 4
  %14 = alloca ptr, align 8
  %15 = alloca i32, align 4
  store ptr %0, ptr %7, align 8, !tbaa !35
  store ptr %1, ptr %8, align 8, !tbaa !86
  store i64 %2, ptr %9, align 8, !tbaa !37
  store ptr %3, ptr %10, align 8, !tbaa !8
  store i64 %4, ptr %11, align 8, !tbaa !37
  call void @llvm.lifetime.start.p0(i64 64, ptr %12) #8
  call void @llvm.lifetime.start.p0(i64 4, ptr %13) #8
  call void @llvm.lifetime.start.p0(i64 8, ptr %14) #8
  %16 = load ptr, ptr %7, align 8, !tbaa !35
  %17 = getelementptr inbounds nuw %struct.nghttp2_hd_deflater, ptr %16, i32 0, i32 0
  %18 = getelementptr inbounds nuw %struct.nghttp2_hd_context, ptr %17, i32 0, i32 1
  %19 = load ptr, ptr %18, align 8, !tbaa !87
  store ptr %19, ptr %14, align 8, !tbaa !8
  %20 = load ptr, ptr %8, align 8, !tbaa !86
  %21 = load i64, ptr %9, align 8, !tbaa !37
  %22 = load ptr, ptr %14, align 8, !tbaa !8
  %23 = call i32 @nghttp2_bufs_wrap_init(ptr noundef %12, ptr noundef %20, i64 noundef %21, ptr noundef %22)
  store i32 %23, ptr %13, align 4, !tbaa !12
  %24 = load i32, ptr %13, align 4, !tbaa !12
  %25 = icmp ne i32 %24, 0
  br i1 %25, label %26, label %29

26:                                               ; preds = %5
  %27 = load i32, ptr %13, align 4, !tbaa !12
  %28 = sext i32 %27 to i64
  store i64 %28, ptr %6, align 8
  store i32 1, ptr %15, align 4
  br label %46

29:                                               ; preds = %5
  %30 = load ptr, ptr %7, align 8, !tbaa !35
  %31 = load ptr, ptr %10, align 8, !tbaa !8
  %32 = load i64, ptr %11, align 8, !tbaa !37
  %33 = call i32 @nghttp2_hd_deflate_hd_bufs(ptr noundef %30, ptr noundef %12, ptr noundef %31, i64 noundef %32)
  store i32 %33, ptr %13, align 4, !tbaa !12
  %34 = call i64 @nghttp2_bufs_len(ptr noundef %12)
  store i64 %34, ptr %9, align 8, !tbaa !37
  call void @nghttp2_bufs_wrap_free(ptr noundef %12)
  %35 = load i32, ptr %13, align 4, !tbaa !12
  %36 = icmp eq i32 %35, -502
  br i1 %36, label %37, label %38

37:                                               ; preds = %29
  store i64 -525, ptr %6, align 8
  store i32 1, ptr %15, align 4
  br label %46

38:                                               ; preds = %29
  %39 = load i32, ptr %13, align 4, !tbaa !12
  %40 = icmp ne i32 %39, 0
  br i1 %40, label %41, label %44

41:                                               ; preds = %38
  %42 = load i32, ptr %13, align 4, !tbaa !12
  %43 = sext i32 %42 to i64
  store i64 %43, ptr %6, align 8
  store i32 1, ptr %15, align 4
  br label %46

44:                                               ; preds = %38
  %45 = load i64, ptr %9, align 8, !tbaa !37
  store i64 %45, ptr %6, align 8
  store i32 1, ptr %15, align 4
  br label %46

46:                                               ; preds = %44, %41, %37, %26
  call void @llvm.lifetime.end.p0(i64 8, ptr %14) #8
  call void @llvm.lifetime.end.p0(i64 4, ptr %13) #8
  call void @llvm.lifetime.end.p0(i64 64, ptr %12) #8
  %47 = load i64, ptr %6, align 8
  ret i64 %47
}

; Function Attrs: nounwind uwtable
define i64 @nghttp2_hd_deflate_hd(ptr noundef %0, ptr noundef %1, i64 noundef %2, ptr noundef %3, i64 noundef %4) #0 {
  %6 = alloca ptr, align 8
  %7 = alloca ptr, align 8
  %8 = alloca i64, align 8
  %9 = alloca ptr, align 8
  %10 = alloca i64, align 8
  store ptr %0, ptr %6, align 8, !tbaa !35
  store ptr %1, ptr %7, align 8, !tbaa !86
  store i64 %2, ptr %8, align 8, !tbaa !37
  store ptr %3, ptr %9, align 8, !tbaa !8
  store i64 %4, ptr %10, align 8, !tbaa !37
  %11 = load ptr, ptr %6, align 8, !tbaa !35
  %12 = load ptr, ptr %7, align 8, !tbaa !86
  %13 = load i64, ptr %8, align 8, !tbaa !37
  %14 = load ptr, ptr %9, align 8, !tbaa !8
  %15 = load i64, ptr %10, align 8, !tbaa !37
  %16 = call i64 @nghttp2_hd_deflate_hd2(ptr noundef %11, ptr noundef %12, i64 noundef %13, ptr noundef %14, i64 noundef %15)
  ret i64 %16
}